; Function Attrs: nounwind uwtable
define noalias nonnull ptr @l_Lean_Elab_Command_inductiveElabAttr_unsafe__1___lambda__3___boxed(ptr noundef %0, ptr noundef %1, ptr noundef %2, ptr noundef %3, ptr noundef %4) #1 {
  %6 = ptrtoint ptr %0 to i64
  %7 = and i64 %6, 1
  %.not = icmp eq i64 %7, 0
  br i1 %.not, label %8, label %lean_dec.exit12

8:                                                ; preds = %5
  %9 = load i32, ptr %0, align 4, !tbaa !8
  %10 = icmp sgt i32 %9, 1
  br i1 %10, label %11, label %13, !prof !11

11:                                               ; preds = %8
  %12 = add nsw i32 %9, -1
  store i32 %12, ptr %0, align 4, !tbaa !8
  br label %lean_dec.exit12

13:                                               ; preds = %8
  %.not.i = icmp eq i32 %9, 0
  br i1 %.not.i, label %lean_dec.exit12, label %14

14:                                               ; preds = %13
  tail call void @lean_dec_ref_cold(ptr noundef nonnull %0) #5
  br label %lean_dec.exit12

lean_dec.exit12:                                  ; preds = %14, %13, %11, %5
  tail call void @lean_inc_heartbeat() #5
  %15 = tail call noalias ptr @mi_malloc_small(i64 noundef 24) #5
  %16 = icmp eq ptr %15, null
  br i1 %16, label %17, label %l_Lean_Elab_Command_inductiveElabAttr_unsafe__1___lambda__3.exit

17:                                               ; preds = %lean_dec.exit12
  tail call void @lean_internal_panic_out_of_memory() #6
  unreachable

l_Lean_Elab_Command_inductiveElabAttr_unsafe__1___lambda__3.exit: ; preds = %lean_dec.exit12
  %18 = getelementptr inbounds nuw i8, ptr %15, i64 4
  store i32 1, ptr %15, align 4, !tbaa !8
  store i32 131096, ptr %18, align 4
  %19 = getelementptr inbounds nuw i8, ptr %15, i64 8
  store ptr inttoptr (i64 1 to ptr), ptr %19, align 8, !tbaa !12
  %20 = getelementptr inbounds nuw i8, ptr %15, i64 16
  store ptr %4, ptr %20, align 8, !tbaa !12
  %21 = ptrtoint ptr %3 to i64
  %22 = and i64 %21, 1
  %.not19 = icmp eq i64 %22, 0
  br i1 %.not19, label %23, label %lean_dec.exit11

23:                                               ; preds = %l_Lean_Elab_Command_inductiveElabAttr_unsafe__1___lambda__3.exit
  %24 = load i32, ptr %3, align 4, !tbaa !8
  %25 = icmp sgt i32 %24, 1
  br i1 %25, label %26, label %28, !prof !11

26:                                               ; preds = %23
  %27 = add nsw i32 %24, -1
  store i32 %27, ptr %3, align 4, !tbaa !8
  br label %lean_dec.exit11

28:                                               ; preds = %23
  %.not.i13 = icmp eq i32 %24, 0
  br i1 %.not.i13, label %lean_dec.exit11, label %29

29:                                               ; preds = %28
  tail call void @lean_dec_ref_cold(ptr noundef nonnull %3) #5
  br label %lean_dec.exit11

lean_dec.exit11:                                  ; preds = %29, %28, %26, %l_Lean_Elab_Command_inductiveElabAttr_unsafe__1___lambda__3.exit
  %30 = ptrtoint ptr %2 to i64
  %31 = and i64 %30, 1
  %.not20 = icmp eq i64 %31, 0
  br i1 %.not20, label %32, label %lean_dec.exit10

32:                                               ; preds = %lean_dec.exit11
  %33 = load i32, ptr %2, align 4, !tbaa !8
  %34 = icmp sgt i32 %33, 1
  br i1 %34, label %35, label %37, !prof !11

35:                                               ; preds = %32
  %36 = add nsw i32 %33, -1
  store i32 %36, ptr %2, align 4, !tbaa !8
  br label %lean_dec.exit10

37:                                               ; preds = %32
  %.not.i15 = icmp eq i32 %33, 0
  br i1 %.not.i15, label %lean_dec.exit10, label %38

38:                                               ; preds = %37
  tail call void @lean_dec_ref_cold(ptr noundef nonnull %2) #5
  br label %lean_dec.exit10

lean_dec.exit10:                                  ; preds = %38, %37, %35, %lean_dec.exit11
  %39 = ptrtoint ptr %1 to i64
  %40 = and i64 %39, 1
  %.not21 = icmp eq i64 %40, 0
  br i1 %.not21, label %41, label %lean_dec.exit

41:                                               ; preds = %lean_dec.exit10
  %42 = load i32, ptr %1, align 4, !tbaa !8
  %43 = icmp sgt i32 %42, 1
  br i1 %43, label %44, label %46, !prof !11

44:                                               ; preds = %41
  %45 = add nsw i32 %42, -1
  store i32 %45, ptr %1, align 4, !tbaa !8
  br label %lean_dec.exit

46:                                               ; preds = %41
  %.not.i17 = icmp eq i32 %42, 0
  br i1 %.not.i17, label %lean_dec.exit, label %47

47:                                               ; preds = %46
  tail call void @lean_dec_ref_cold(ptr noundef nonnull %1) #5
  br label %lean_dec.exit

lean_dec.exit:                                    ; preds = %47, %46, %44, %lean_dec.exit10
  ret ptr %15
}